target datalayout = "e-m:e-p270:32:32-p271:32:32-p272:64:64-i64:64-i128:128-f80:128-n8:16:32:64-S128"
target triple = "x86_64-pc-linux-gnu"

%struct.SparseMatrix_struct = type { i32, i32, i32, i32, i32, ptr, ptr, ptr, i32, i8, i64 }

; Function Attrs: nounwind uwtable
define internal i64 @size_of_matrix_type(i32 noundef %0) #0 {
  %2 = alloca i32, align 4
  %3 = alloca i64, align 8
  store i32 %0, ptr %2, align 4, !tbaa !17
  call void @llvm.lifetime.start.p0(i64 8, ptr %3) #11
  store i64 0, ptr %3, align 8, !tbaa !52
  %4 = load i32, ptr %2, align 4, !tbaa !17
  switch i32 %4, label %10 [
    i32 1, label %5
    i32 2, label %6
    i32 4, label %7
    i32 8, label %8
    i32 16, label %9
  ]

5:                                                ; preds = %1
  store i64 8, ptr %3, align 8, !tbaa !52
  br label %11

6:                                                ; preds = %1
  store i64 16, ptr %3, align 8, !tbaa !52
  br label %11

7:                                                ; preds = %1
  store i64 4, ptr %3, align 8, !tbaa !52
  br label %11

8:                                                ; preds = %1
  store i64 0, ptr %3, align 8, !tbaa !52
  br label %11

9:                                                ; preds = %1
  store i64 0, ptr %3, align 8, !tbaa !52
  br label %11

10:                                               ; preds = %1
  store i64 0, ptr %3, align 8, !tbaa !52
  br label %11

11:                                               ; preds = %10, %9, %8, %7, %6, %5
  %12 = load i64, ptr %3, align 8, !tbaa !52
  call void @llvm.lifetime.end.p0(i64 8, ptr %3) #11
  ret i64 %12
}

; Function Attrs: nounwind uwtable
define ptr @SparseMatrix_new(i32 noundef %0, i32 noundef %1, i32 noundef %2, i32 noundef %3, i32 noundef %4) #0 {
  %6 = alloca i32, align 4
  %7 = alloca i32, align 4
  %8 = alloca i32, align 4
  %9 = alloca i32, align 4
  %10 = alloca i32, align 4
  %11 = alloca ptr, align 8
  %12 = alloca i64, align 8
  store i32 %0, ptr %6, align 4, !tbaa !17
  store i32 %1, ptr %7, align 4, !tbaa !17
  store i32 %2, ptr %8, align 4, !tbaa !17
  store i32 %3, ptr %9, align 4, !tbaa !17
  store i32 %4, ptr %10, align 4, !tbaa !17
  call void @llvm.lifetime.start.p0(i64 8, ptr %11) #11
  call void @llvm.lifetime.start.p0(i64 8, ptr %12) #11
  %13 = load i32, ptr %9, align 4, !tbaa !17
  %14 = call i64 @size_of_matrix_type(i32 noundef %13)
  store i64 %14, ptr %12, align 8, !tbaa !52
  %15 = load i32, ptr %6, align 4, !tbaa !17
  %16 = load i32, ptr %7, align 4, !tbaa !17
  %17 = load i32, ptr %9, align 4, !tbaa !17
  %18 = load i64, ptr %12, align 8, !tbaa !52
  %19 = load i32, ptr %10, align 4, !tbaa !17
  %20 = call ptr @SparseMatrix_init(i32 noundef %15, i32 noundef %16, i32 noundef %17, i64 noundef %18, i32 noundef %19)
  store ptr %20, ptr %11, align 8, !tbaa !3
  %21 = load i32, ptr %8, align 4, !tbaa !17
  %22 = icmp sgt i32 %21, 0
  br i1 %22, label %23, label %27

23:                                               ; preds = %5
  %24 = load ptr, ptr %11, align 8, !tbaa !3
  %25 = load i32, ptr %8, align 4, !tbaa !17
  %26 = call ptr @SparseMatrix_alloc(ptr noundef %24, i32 noundef %25)
  store ptr %26, ptr %11, align 8, !tbaa !3
  br label %27

27:                                               ; preds = %23, %5
  %28 = load ptr, ptr %11, align 8, !tbaa !3
  call void @llvm.lifetime.end.p0(i64 8, ptr %12) #11
  call void @llvm.lifetime.end.p0(i64 8, ptr %11) #11
  ret ptr %28
}

; Function Attrs: nounwind uwtable
define ptr @SparseMatrix_from_dense(i32 noundef %0, i32 noundef %1, ptr noundef %2) #0 {
  %4 = alloca i32, align 4
  %5 = alloca i32, align 4
  %6 = alloca ptr, align 8
  %7 = alloca i32, align 4
  %8 = alloca i32, align 4
  %9 = alloca ptr, align 8
  %10 = alloca ptr, align 8
  %11 = alloca ptr, align 8
  store i32 %0, ptr %4, align 4, !tbaa !17
  store i32 %1, ptr %5, align 4, !tbaa !17
  store ptr %2, ptr %6, align 8, !tbaa !28
  call void @llvm.lifetime.start.p0(i64 4, ptr %7) #11
  call void @llvm.lifetime.start.p0(i64 4, ptr %8) #11
  call void @llvm.lifetime.start.p0(i64 8, ptr %9) #11
  call void @llvm.lifetime.start.p0(i64 8, ptr %10) #11
  call void @llvm.lifetime.start.p0(i64 8, ptr %11) #11
  %12 = load i32, ptr %4, align 4, !tbaa !17
  %13 = load i32, ptr %5, align 4, !tbaa !17
  %14 = load i32, ptr %4, align 4, !tbaa !17
  %15 = load i32, ptr %5, align 4, !tbaa !17
  %16 = mul nsw i32 %14, %15
  %17 = call ptr @SparseMatrix_new(i32 noundef %12, i32 noundef %13, i32 noundef %16, i32 noundef 1, i32 noundef 0)
  store ptr %17, ptr %11, align 8, !tbaa !3
  %18 = load ptr, ptr %11, align 8, !tbaa !3
  %19 = getelementptr inbounds nuw %struct.SparseMatrix_struct, ptr %18, i32 0, i32 5
  %20 = load ptr, ptr %19, align 8, !tbaa !8
  %21 = getelementptr inbounds i32, ptr %20, i64 0
  store i32 0, ptr %21, align 4, !tbaa !17
  store i32 1, ptr %7, align 4, !tbaa !17
  br label %22

22:                                               ; preds = %43, %3
  %23 = load i32, ptr %7, align 4, !tbaa !17
  %24 = load i32, ptr %4, align 4, !tbaa !17
  %25 = icmp sle i32 %23, %24
  br i1 %25, label %26, label %46

26:                                               ; preds = %22
  %27 = load ptr, ptr %11, align 8, !tbaa !3
  %28 = getelementptr inbounds nuw %struct.SparseMatrix_struct, ptr %27, i32 0, i32 5
  %29 = load ptr, ptr %28, align 8, !tbaa !8
  %30 = load i32, ptr %7, align 4, !tbaa !17
  %31 = sub nsw i32 %30, 1
  %32 = sext i32 %31 to i64
  %33 = getelementptr inbounds i32, ptr %29, i64 %32
  %34 = load i32, ptr %33, align 4, !tbaa !17
  %35 = load i32, ptr %5, align 4, !tbaa !17
  %36 = add nsw i32 %34, %35
  %37 = load ptr, ptr %11, align 8, !tbaa !3
  %38 = getelementptr inbounds nuw %struct.SparseMatrix_struct, ptr %37, i32 0, i32 5
  %39 = load ptr, ptr %38, align 8, !tbaa !8
  %40 = load i32, ptr %7, align 4, !tbaa !17
  %41 = sext i32 %40 to i64
  %42 = getelementptr inbounds i32, ptr %39, i64 %41
  store i32 %36, ptr %42, align 4, !tbaa !17
  br label %43

43:                                               ; preds = %26
  %44 = load i32, ptr %7, align 4, !tbaa !17
  %45 = add nsw i32 %44, 1
  store i32 %45, ptr %7, align 4, !tbaa !17
  br label %22, !llvm.loop !224

46:                                               ; preds = %22
  %47 = load ptr, ptr %11, align 8, !tbaa !3
  %48 = getelementptr inbounds nuw %struct.SparseMatrix_struct, ptr %47, i32 0, i32 6
  %49 = load ptr, ptr %48, align 8, !tbaa !15
  store ptr %49, ptr %9, align 8, !tbaa !14
  %50 = load ptr, ptr %11, align 8, !tbaa !3
  %51 = getelementptr inbounds nuw %struct.SparseMatrix_struct, ptr %50, i32 0, i32 7
  %52 = load ptr, ptr %51, align 8, !tbaa !27
  store ptr %52, ptr %10, align 8, !tbaa !28
  store i32 0, ptr %7, align 4, !tbaa !17
  br label %53

53:                                               ; preds = %93, %46
  %54 = load i32, ptr %7, align 4, !tbaa !17
  %55 = load i32, ptr %4, align 4, !tbaa !17
  %56 = icmp slt i32 %54, %55
  br i1 %56, label %57, label %96

57:                                               ; preds = %53
  store i32 0, ptr %8, align 4, !tbaa !17
  br label %58

58:                                               ; preds = %81, %57
  %59 = load i32, ptr %8, align 4, !tbaa !17
  %60 = load i32, ptr %5, align 4, !tbaa !17
  %61 = icmp slt i32 %59, %60
  br i1 %61, label %62, label %84

62:                                               ; preds = %58
  %63 = load i32, ptr %8, align 4, !tbaa !17
  %64 = load ptr, ptr %9, align 8, !tbaa !14
  %65 = load i32, ptr %8, align 4, !tbaa !17
  %66 = sext i32 %65 to i64
  %67 = getelementptr inbounds i32, ptr %64, i64 %66
  store i32 %63, ptr %67, align 4, !tbaa !17
  %68 = load ptr, ptr %6, align 8, !tbaa !28
  %69 = load i32, ptr %7, align 4, !tbaa !17
  %70 = load i32, ptr %5, align 4, !tbaa !17
  %71 = mul nsw i32 %69, %70
  %72 = load i32, ptr %8, align 4, !tbaa !17
  %73 = add nsw i32 %71, %72
  %74 = sext i32 %73 to i64
  %75 = getelementptr inbounds double, ptr %68, i64 %74
  %76 = load double, ptr %75, align 8, !tbaa !30
  %77 = load ptr, ptr %10, align 8, !tbaa !28
  %78 = load i32, ptr %8, align 4, !tbaa !17
  %79 = sext i32 %78 to i64
  %80 = getelementptr inbounds double, ptr %77, i64 %79
  store double %76, ptr %80, align 8, !tbaa !30
  br label %81

81:                                               ; preds = %62
  %82 = load i32, ptr %8, align 4, !tbaa !17
  %83 = add nsw i32 %82, 1
  store i32 %83, ptr %8, align 4, !tbaa !17
  br label %58, !llvm.loop !225

84:                                               ; preds = %58
  %85 = load i32, ptr %5, align 4, !tbaa !17
  %86 = load ptr, ptr %9, align 8, !tbaa !14
  %87 = sext i32 %85 to i64
  %88 = getelementptr inbounds i32, ptr %86, i64 %87
  store ptr %88, ptr %9, align 8, !tbaa !14
  %89 = load i32, ptr %8, align 4, !tbaa !17
  %90 = load ptr, ptr %10, align 8, !tbaa !28
  %91 = sext i32 %89 to i64
  %92 = getelementptr inbounds double, ptr %90, i64 %91
  store ptr %92, ptr %10, align 8, !tbaa !28
  br label %93

93:                                               ; preds = %84
  %94 = load i32, ptr %7, align 4, !tbaa !17
  %95 = add nsw i32 %94, 1
  store i32 %95, ptr %7, align 4, !tbaa !17
  br label %53, !llvm.loop !226

96:                                               ; preds = %53
  %97 = load i32, ptr %4, align 4, !tbaa !17
  %98 = load i32, ptr %5, align 4, !tbaa !17
  %99 = mul nsw i32 %97, %98
  %100 = load ptr, ptr %11, align 8, !tbaa !3
  %101 = getelementptr inbounds nuw %struct.SparseMatrix_struct, ptr %100, i32 0, i32 2
  store i32 %99, ptr %101, align 8, !tbaa !16
  %102 = load ptr, ptr %11, align 8, !tbaa !3
  call void @llvm.lifetime.end.p0(i64 8, ptr %11) #11
  call void @llvm.lifetime.end.p0(i64 8, ptr %10) #11
  call void @llvm.lifetime.end.p0(i64 8, ptr %9) #11
  call void @llvm.lifetime.end.p0(i64 4, ptr %8) #11
  call void @llvm.lifetime.end.p0(i64 4, ptr %7) #11
  ret ptr %102
}