; Function Attrs: nofree nounwind uwtable
define noalias noundef ptr @SparseMatrix_from_dense(i32 noundef %0, i32 noundef %1, ptr noundef readonly captures(none) %2) local_unnamed_addr #4 {
  %4 = mul nsw i32 %1, %0
  %5 = tail call fastcc ptr @SparseMatrix_init(i32 noundef %0, i32 noundef %1, i32 noundef 1, i64 noundef 8, i32 noundef 0)
  %6 = icmp sgt i32 %4, 0
  br i1 %6, label %7, label %SparseMatrix_new.exit

7:                                                ; preds = %3
  %8 = tail call fastcc ptr @SparseMatrix_alloc(ptr noundef %5, i32 noundef %4)
  br label %SparseMatrix_new.exit

SparseMatrix_new.exit:                            ; preds = %3, %7
  %9 = getelementptr inbounds nuw i8, ptr %5, i64 24
  %10 = load ptr, ptr %9, align 8, !tbaa !3
  store i32 0, ptr %10, align 4, !tbaa !19
  %.not43 = icmp slt i32 %0, 1
  br i1 %.not43, label %._crit_edge51, label %.lr.ph.preheader

.lr.ph.preheader:                                 ; preds = %SparseMatrix_new.exit
  %11 = add nuw i32 %0, 1
  %wide.trip.count = zext i32 %11 to i64
  %load_initial = load i32, ptr %10, align 4
  br label %.lr.ph

.lr.ph:                                           ; preds = %.lr.ph.preheader, %.lr.ph
  %store_forwarded = phi i32 [ %load_initial, %.lr.ph.preheader ], [ %13, %.lr.ph ]
  %indvars.iv = phi i64 [ 1, %.lr.ph.preheader ], [ %indvars.iv.next, %.lr.ph ]
  %12 = getelementptr i32, ptr %10, i64 %indvars.iv
  %13 = add nsw i32 %store_forwarded, %1
  store i32 %13, ptr %12, align 4, !tbaa !19
  %indvars.iv.next = add nuw nsw i64 %indvars.iv, 1
  %exitcond.not = icmp eq i64 %indvars.iv.next, %wide.trip.count
  br i1 %exitcond.not, label %.preheader.lr.ph, label %.lr.ph, !llvm.loop !201

.preheader.lr.ph:                                 ; preds = %.lr.ph
  %14 = icmp sgt i32 %1, 0
  %15 = sext i32 %1 to i64
  br i1 %14, label %.preheader.us.preheader, label %._crit_edge51

.preheader.us.preheader:                          ; preds = %.preheader.lr.ph
  %16 = getelementptr inbounds nuw i8, ptr %5, i64 32
  %17 = load ptr, ptr %16, align 8, !tbaa !12
  %18 = getelementptr inbounds nuw i8, ptr %5, i64 40
  %19 = load ptr, ptr %18, align 8, !tbaa !13
  %20 = zext nneg i32 %1 to i64
  %wide.trip.count62 = zext nneg i32 %0 to i64
  br label %.preheader.us

.preheader.us:                                    ; preds = %.preheader.us.preheader, %._crit_edge47.us
  %indvars.iv59 = phi i64 [ 0, %.preheader.us.preheader ], [ %indvars.iv.next60, %._crit_edge47.us ]
  %.03749.us = phi ptr [ %19, %.preheader.us.preheader ], [ %28, %._crit_edge47.us ]
  %.03848.us = phi ptr [ %17, %.preheader.us.preheader ], [ %27, %._crit_edge47.us ]
  %21 = mul nuw nsw i64 %indvars.iv59, %20
  %invariant.gep = getelementptr inbounds nuw double, ptr %2, i64 %21
  br label %22

22:                                               ; preds = %.preheader.us, %22
  %indvars.iv54 = phi i64 [ 0, %.preheader.us ], [ %indvars.iv.next55, %22 ]
  %23 = getelementptr inbounds nuw i32, ptr %.03848.us, i64 %indvars.iv54
  %24 = trunc nuw nsw i64 %indvars.iv54 to i32
  store i32 %24, ptr %23, align 4, !tbaa !19
  %gep = getelementptr inbounds nuw double, ptr %invariant.gep, i64 %indvars.iv54
  %25 = load double, ptr %gep, align 8, !tbaa !25
  %26 = getelementptr inbounds nuw double, ptr %.03749.us, i64 %indvars.iv54
  store double %25, ptr %26, align 8, !tbaa !25
  %indvars.iv.next55 = add nuw nsw i64 %indvars.iv54, 1
  %exitcond58.not = icmp eq i64 %indvars.iv.next55, %20
  br i1 %exitcond58.not, label %._crit_edge47.us, label %22, !llvm.loop !202

._crit_edge47.us:                                 ; preds = %22
  %27 = getelementptr inbounds nuw i32, ptr %.03848.us, i64 %15
  %28 = getelementptr inbounds nuw double, ptr %.03749.us, i64 %20
  %indvars.iv.next60 = add nuw nsw i64 %indvars.iv59, 1
  %exitcond63.not = icmp eq i64 %indvars.iv.next60, %wide.trip.count62
  br i1 %exitcond63.not, label %._crit_edge51, label %.preheader.us, !llvm.loop !203

._crit_edge51:                                    ; preds = %._crit_edge47.us, %SparseMatrix_new.exit, %.preheader.lr.ph
  %29 = getelementptr inbounds nuw i8, ptr %5, i64 8
  store i32 %4, ptr %29, align 8, !tbaa !14
  ret ptr %5
}